; Function Attrs: nounwind uwtable
define ptr @zend_fetch_class_with_scope(ptr noundef %0, i32 noundef %1, ptr noundef readonly %2) local_unnamed_addr #0 {
  %4 = and i32 %1, 15
  switch i32 %4, label %13 [
    i32 1, label %5
    i32 2, label %7
    i32 0, label %14
  ]

5:                                                ; preds = %3
  %.not18 = icmp eq ptr %2, null
  br i1 %.not18, label %6, label %report_class_fetch_error.exit

6:                                                ; preds = %5
  tail call void (i32, ptr, ptr, ...) @zend_throw_or_error(i32 noundef %1, ptr poison, ptr noundef nonnull @.str.14)
  br label %report_class_fetch_error.exit

7:                                                ; preds = %3
  %.not16 = icmp eq ptr %2, null
  br i1 %.not16, label %8, label %9

8:                                                ; preds = %7
  tail call void (i32, ptr, ptr, ...) @zend_throw_or_error(i32 noundef %1, ptr poison, ptr noundef nonnull @.str.15)
  br label %report_class_fetch_error.exit

9:                                                ; preds = %7
  %10 = getelementptr inbounds i8, ptr %2, i64 16
  %11 = load ptr, ptr %10, align 8
  %.not17 = icmp eq ptr %11, null
  br i1 %.not17, label %12, label %report_class_fetch_error.exit

12:                                               ; preds = %9
  tail call void (i32, ptr, ptr, ...) @zend_throw_or_error(i32 noundef %1, ptr poison, ptr noundef nonnull @.str.16)
  %.pre = load ptr, ptr %10, align 8
  br label %report_class_fetch_error.exit

13:                                               ; preds = %3
  unreachable

14:                                               ; preds = %3
  %15 = tail call ptr @zend_lookup_class_ex(ptr noundef %0, ptr noundef null, i32 noundef %1)
  %.not = icmp eq ptr %15, null
  br i1 %.not, label %16, label %report_class_fetch_error.exit

16:                                               ; preds = %14
  %17 = and i32 %1, 256
  %.not.i = icmp eq i32 %17, 0
  br i1 %.not.i, label %18, label %report_class_fetch_error.exit

18:                                               ; preds = %16
  %19 = load ptr, ptr getelementptr inbounds (%struct._zend_executor_globals, ptr @executor_globals, i64 0, i32 50), align 8
  %.not9.i = icmp eq ptr %19, null
  br i1 %.not9.i, label %.sink.split.i, label %20

20:                                               ; preds = %18
  %21 = and i32 %1, 512
  %.not10.i = icmp eq i32 %21, 0
  br i1 %.not10.i, label %22, label %report_class_fetch_error.exit

22:                                               ; preds = %20
  tail call void (ptr, ...) @zend_exception_uncaught_error(ptr noundef nonnull @.str.21) #27
  unreachable

.sink.split.i:                                    ; preds = %18
  %23 = getelementptr inbounds i8, ptr %0, i64 24
  tail call void (i32, ptr, ptr, ...) @zend_throw_or_error(i32 noundef %1, ptr poison, ptr noundef nonnull @.str.24, ptr noundef nonnull %23)
  br label %report_class_fetch_error.exit

report_class_fetch_error.exit:                    ; preds = %9, %12, %.sink.split.i, %20, %16, %14, %5, %6, %8
  %.0 = phi ptr [ null, %8 ], [ null, %6 ], [ %2, %5 ], [ %15, %14 ], [ null, %16 ], [ null, %20 ], [ null, %.sink.split.i ], [ %.pre, %12 ], [ %11, %9 ]
  ret ptr %.0
}